target datalayout = "e-m:e-p270:32:32-p271:32:32-p272:64:64-i64:64-i128:128-f80:128-n8:16:32:64-S128"
target triple = "x86_64-pc-linux-gnu"

%"class.logos::Point" = type { float, float, float, float, %"class.std::vector", i8, i32 }
%"class.std::vector" = type { %"struct.std::_Vector_base" }
%"struct.std::_Vector_base" = type { %"struct.std::_Vector_base<logos::Point *, std::allocator<logos::Point *>>::_Vector_impl" }
%"struct.std::_Vector_base<logos::Point *, std::allocator<logos::Point *>>::_Vector_impl" = type { %"struct.std::_Vector_base<logos::Point *, std::allocator<logos::Point *>>::_Vector_impl_data" }
%"struct.std::_Vector_base<logos::Point *, std::allocator<logos::Point *>>::_Vector_impl_data" = type { ptr, ptr, ptr }

; Function Attrs: mustprogress nounwind uwtable
define linkonce_odr hidden void @_ZNSt15__new_allocatorIPN5logos5PointEEC2Ev(ptr noundef nonnull align 1 dereferenceable(1) %0) unnamed_addr #4 comdat align 2 {
  %2 = alloca ptr, align 8
  store ptr %0, ptr %2, align 8, !tbaa !80
  ret void
}

; Function Attrs: mustprogress nounwind uwtable
define linkonce_odr hidden void @_ZNSt12_Vector_baseIPN5logos5PointESaIS2_EE17_Vector_impl_dataC2Ev(ptr noundef nonnull align 8 dereferenceable(24) %0) unnamed_addr #4 comdat align 2 {
  %2 = alloca ptr, align 8
  store ptr %0, ptr %2, align 8, !tbaa !78
  %3 = load ptr, ptr %2, align 8
  %4 = getelementptr inbounds nuw %"struct.std::_Vector_base<logos::Point *, std::allocator<logos::Point *>>::_Vector_impl_data", ptr %3, i32 0, i32 0
  store ptr null, ptr %4, align 8, !tbaa !46
  %5 = getelementptr inbounds nuw %"struct.std::_Vector_base<logos::Point *, std::allocator<logos::Point *>>::_Vector_impl_data", ptr %3, i32 0, i32 1
  store ptr null, ptr %5, align 8, !tbaa !45
  %6 = getelementptr inbounds nuw %"struct.std::_Vector_base<logos::Point *, std::allocator<logos::Point *>>::_Vector_impl_data", ptr %3, i32 0, i32 2
  store ptr null, ptr %6, align 8, !tbaa !64
  ret void
}

; Function Attrs: mustprogress nounwind uwtable
define linkonce_odr hidden void @_ZNSaIPN5logos5PointEEC2Ev(ptr noundef nonnull align 1 dereferenceable(1) %0) unnamed_addr #4 comdat align 2 {
  %2 = alloca ptr, align 8
  store ptr %0, ptr %2, align 8, !tbaa !76
  %3 = load ptr, ptr %2, align 8
  call void @_ZNSt15__new_allocatorIPN5logos5PointEEC2Ev(ptr noundef nonnull align 1 dereferenceable(1) %3) #3
  ret void
}

; Function Attrs: mustprogress nounwind uwtable
define linkonce_odr hidden void @_ZNSt12_Vector_baseIPN5logos5PointESaIS2_EE12_Vector_implC2Ev(ptr noundef nonnull align 8 dereferenceable(24) %0) unnamed_addr #4 comdat align 2 {
  %2 = alloca ptr, align 8
  store ptr %0, ptr %2, align 8, !tbaa !74
  %3 = load ptr, ptr %2, align 8
  call void @_ZNSaIPN5logos5PointEEC2Ev(ptr noundef nonnull align 1 dereferenceable(1) %3) #3
  call void @_ZNSt12_Vector_baseIPN5logos5PointESaIS2_EE17_Vector_impl_dataC2Ev(ptr noundef nonnull align 8 dereferenceable(24) %3) #3
  ret void
}

; Function Attrs: mustprogress nounwind uwtable
define linkonce_odr hidden void @_ZNSt12_Vector_baseIPN5logos5PointESaIS2_EEC2Ev(ptr noundef nonnull align 8 dereferenceable(24) %0) unnamed_addr #4 comdat align 2 {
  %2 = alloca ptr, align 8
  store ptr %0, ptr %2, align 8, !tbaa !72
  %3 = load ptr, ptr %2, align 8
  %4 = getelementptr inbounds nuw %"struct.std::_Vector_base", ptr %3, i32 0, i32 0
  call void @_ZNSt12_Vector_baseIPN5logos5PointESaIS2_EE12_Vector_implC2Ev(ptr noundef nonnull align 8 dereferenceable(24) %4) #3
  ret void
}

; Function Attrs: mustprogress nounwind uwtable
define linkonce_odr hidden void @_ZNSt6vectorIPN5logos5PointESaIS2_EEC2Ev(ptr noundef nonnull align 8 dereferenceable(24) %0) unnamed_addr #4 comdat align 2 {
  %2 = alloca ptr, align 8
  store ptr %0, ptr %2, align 8, !tbaa !24
  %3 = load ptr, ptr %2, align 8
  call void @_ZNSt12_Vector_baseIPN5logos5PointESaIS2_EEC2Ev(ptr noundef nonnull align 8 dereferenceable(24) %3) #3
  ret void
}

; Function Attrs: mustprogress nounwind uwtable
define hidden void @_ZN5logos5PointC2Effffi(ptr noundef nonnull align 8 dereferenceable(48) %0, float noundef %1, float noundef %2, float noundef %3, float noundef %4, i32 noundef %5) unnamed_addr #4 align 2 {
  %7 = alloca ptr, align 8
  %8 = alloca float, align 4
  %9 = alloca float, align 4
  %10 = alloca float, align 4
  %11 = alloca float, align 4
  %12 = alloca i32, align 4
  store ptr %0, ptr %7, align 8, !tbaa !3
  store float %1, ptr %8, align 4, !tbaa !26
  store float %2, ptr %9, align 4, !tbaa !26
  store float %3, ptr %10, align 4, !tbaa !26
  store float %4, ptr %11, align 4, !tbaa !26
  store i32 %5, ptr %12, align 4, !tbaa !27
  %13 = load ptr, ptr %7, align 8
  %14 = getelementptr inbounds nuw %"class.logos::Point", ptr %13, i32 0, i32 0
  %15 = load float, ptr %8, align 4, !tbaa !26
  store float %15, ptr %14, align 8, !tbaa !8
  %16 = getelementptr inbounds nuw %"class.logos::Point", ptr %13, i32 0, i32 1
  %17 = load float, ptr %9, align 4, !tbaa !26
  store float %17, ptr %16, align 4, !tbaa !19
  %18 = getelementptr inbounds nuw %"class.logos::Point", ptr %13, i32 0, i32 2
  %19 = load float, ptr %10, align 4, !tbaa !26
  store float %19, ptr %18, align 8, !tbaa !20
  %20 = getelementptr inbounds nuw %"class.logos::Point", ptr %13, i32 0, i32 3
  %21 = load float, ptr %11, align 4, !tbaa !26
  store float %21, ptr %20, align 4, !tbaa !21
  %22 = getelementptr inbounds nuw %"class.logos::Point", ptr %13, i32 0, i32 4
  call void @llvm.memset.p0.i64(ptr align 8 %22, i8 0, i64 24, i1 false)
  call void @_ZNSt6vectorIPN5logos5PointESaIS2_EEC2Ev(ptr noundef nonnull align 8 dereferenceable(24) %22) #3
  %23 = getelementptr inbounds nuw %"class.logos::Point", ptr %13, i32 0, i32 5
  store i8 0, ptr %23, align 8, !tbaa !22
  %24 = getelementptr inbounds nuw %"class.logos::Point", ptr %13, i32 0, i32 6
  %25 = load i32, ptr %12, align 4, !tbaa !27
  store i32 %25, ptr %24, align 4, !tbaa !23
  ret void
}