; Function Attrs: mustprogress nofree norecurse nosync nounwind willreturn memory(argmem: write) uwtable
define hidden void @_ZN5logos5PointC2Effffi(ptr noundef nonnull writeonly align 8 captures(none) dereferenceable(48) initializes((0, 41), (44, 48)) %0, float noundef %1, float noundef %2, float noundef %3, float noundef %4, i32 noundef %5) unnamed_addr #3 align 2 {
  store float %1, ptr %0, align 8, !tbaa !3
  %7 = getelementptr inbounds nuw i8, ptr %0, i64 4
  store float %2, ptr %7, align 4, !tbaa !17
  %8 = getelementptr inbounds nuw i8, ptr %0, i64 8
  store float %3, ptr %8, align 8, !tbaa !18
  %9 = getelementptr inbounds nuw i8, ptr %0, i64 12
  store float %4, ptr %9, align 4, !tbaa !19
  %10 = getelementptr inbounds nuw i8, ptr %0, i64 16
  %11 = getelementptr inbounds nuw i8, ptr %0, i64 44
  tail call void @llvm.memset.p0.i64(ptr noundef nonnull align 8 dereferenceable(25) %10, i8 0, i64 25, i1 false)
  store i32 %5, ptr %11, align 4, !tbaa !20
  ret void
}